; Function Attrs: mustprogress uwtable
define void @_ZNK6icu_7515Normalizer2Impl26addCanonIterPropertyStartsEPK9USetAdderR10UErrorCode(ptr noundef nonnull align 8 dereferenceable(80) %this, ptr nocapture noundef readonly %sa, ptr noundef nonnull align 4 dereferenceable(4) %errorCode) local_unnamed_addr #0 align 2 personality ptr @__gxx_personality_v0 {
entry:
  %value = alloca i32, align 4
  %fCanonIterDataInitOnce.i = getelementptr inbounds i8, ptr %this, i64 64
  %0 = load i32, ptr %errorCode, align 4
  %cmp.i.i.i = icmp slt i32 %0, 1
  br i1 %cmp.i.i.i, label %if.end.i.i, label %while.end

if.end.i.i:                                       ; preds = %entry
  %1 = load atomic i32, ptr %fCanonIterDataInitOnce.i acquire, align 8
  %cmp.not.i.i = icmp eq i32 %1, 2
  br i1 %cmp.not.i.i, label %if.else.i.i, label %land.lhs.true.i.i

land.lhs.true.i.i:                                ; preds = %if.end.i.i
  %call2.i.i = tail call noundef signext i8 @_ZN6icu_7520umtx_initImplPreInitERNS_9UInitOnceE(ptr noundef nonnull align 4 dereferenceable(8) %fCanonIterDataInitOnce.i)
  %tobool3.not.i.i = icmp eq i8 %call2.i.i, 0
  br i1 %tobool3.not.i.i, label %if.else.i.i, label %if.then4.i.i

if.then4.i.i:                                     ; preds = %land.lhs.true.i.i
  tail call void @_ZN6icu_7517InitCanonIterData6doInitEPNS_15Normalizer2ImplER10UErrorCode(ptr noundef nonnull %this, ptr noundef nonnull align 4 dereferenceable(4) %errorCode)
  %2 = load i32, ptr %errorCode, align 4
  %fErrCode.i.i = getelementptr inbounds i8, ptr %this, i64 68
  store i32 %2, ptr %fErrCode.i.i, align 4
  tail call void @_ZN6icu_7521umtx_initImplPostInitERNS_9UInitOnceE(ptr noundef nonnull align 4 dereferenceable(8) %fCanonIterDataInitOnce.i)
  br label %_ZNK6icu_7515Normalizer2Impl19ensureCanonIterDataER10UErrorCode.exit

if.else.i.i:                                      ; preds = %land.lhs.true.i.i, %if.end.i.i
  %fErrCode5.i.i = getelementptr inbounds i8, ptr %this, i64 68
  %3 = load i32, ptr %fErrCode5.i.i, align 4
  %cmp.i9.i.i = icmp slt i32 %3, 1
  br i1 %cmp.i9.i.i, label %_ZNK6icu_7515Normalizer2Impl19ensureCanonIterDataER10UErrorCode.exit, label %if.then8.i.i

if.then8.i.i:                                     ; preds = %if.else.i.i
  store i32 %3, ptr %errorCode, align 4
  br label %while.end

_ZNK6icu_7515Normalizer2Impl19ensureCanonIterDataER10UErrorCode.exit: ; preds = %if.then4.i.i, %if.else.i.i
  %.pr = load i32, ptr %errorCode, align 4
  %cmp.i.i = icmp sgt i32 %.pr, 0
  br i1 %cmp.i.i, label %while.end, label %while.cond.preheader

while.cond.preheader:                             ; preds = %_ZNK6icu_7515Normalizer2Impl19ensureCanonIterDataER10UErrorCode.exit
  %fCanonIterData = getelementptr inbounds i8, ptr %this, i64 72
  %4 = load ptr, ptr %fCanonIterData, align 8
  %trie3 = getelementptr inbounds i8, ptr %4, i64 8
  %5 = load ptr, ptr %trie3, align 8
  %call24 = call i32 @ucptrie_getRange_75(ptr noundef %5, i32 noundef 0, i32 noundef 0, i32 noundef 0, ptr noundef nonnull @_ZN6icu_75L20segmentStarterMapperEPKvj, ptr noundef null, ptr noundef nonnull %value)
  %cmp5 = icmp sgt i32 %call24, -1
  br i1 %cmp5, label %while.body.lr.ph, label %while.end

while.body.lr.ph:                                 ; preds = %while.cond.preheader
  %add = getelementptr inbounds i8, ptr %sa, i64 8
  br label %while.body

while.body:                                       ; preds = %while.body.lr.ph, %while.body
  %call27 = phi i32 [ %call24, %while.body.lr.ph ], [ %call2, %while.body ]
  %start.06 = phi i32 [ 0, %while.body.lr.ph ], [ %add3, %while.body ]
  %6 = load ptr, ptr %add, align 8
  %7 = load ptr, ptr %sa, align 8
  call void %6(ptr noundef %7, i32 noundef %start.06)
  %add3 = add nuw nsw i32 %call27, 1
  %8 = load ptr, ptr %fCanonIterData, align 8
  %trie = getelementptr inbounds i8, ptr %8, i64 8
  %9 = load ptr, ptr %trie, align 8
  %call2 = call i32 @ucptrie_getRange_75(ptr noundef %9, i32 noundef %add3, i32 noundef 0, i32 noundef 0, ptr noundef nonnull @_ZN6icu_75L20segmentStarterMapperEPKvj, ptr noundef null, ptr noundef nonnull %value)
  %cmp = icmp sgt i32 %call2, -1
  br i1 %cmp, label %while.body, label %while.end, !llvm.loop !16

while.end:                                        ; preds = %while.body, %if.then8.i.i, %entry, %while.cond.preheader, %_ZNK6icu_7515Normalizer2Impl19ensureCanonIterDataER10UErrorCode.exit
  ret void
}